; Function Attrs: nounwind uwtable
define ptr @l_Lean_Compiler_LCNF_InferType_mkForallFVars(ptr noundef %0, ptr noundef %1, ptr noundef %2, ptr noundef %3, ptr noundef %4, ptr noundef %5, ptr noundef %6, ptr noundef %7) local_unnamed_addr #0 {
lean_dec.exit:
  %8 = tail call ptr @lean_expr_abstract(ptr noundef %1, ptr noundef %0) #5
  %9 = getelementptr i8, ptr %0, i64 8
  %.val = load i64, ptr %9, align 8, !tbaa !12
  %10 = shl i64 %.val, 1
  %11 = or disjoint i64 %10, 1
  %12 = inttoptr i64 %11 to ptr
  %13 = tail call ptr @l_Nat_foldRevM_loop___at_Lean_Compiler_LCNF_InferType_mkForallFVars___spec__1(ptr noundef %0, ptr nonnull poison, ptr noundef nonnull %12, ptr nonnull poison, ptr noundef %8, ptr noundef %2, ptr noundef %3, ptr noundef %4, ptr noundef %5, ptr noundef %6, ptr noundef %7)
  ret ptr %13
}